target datalayout = "e-m:e-p270:32:32-p271:32:32-p272:64:64-i64:64-i128:128-f80:128-n8:16:32:64-S128"
target triple = "x86_64-pc-linux-gnu"

%"struct.pxrInternal_v0_24__pxrReserved__::TfDebug::_Node" = type { %"struct.std::atomic" }
%"struct.std::atomic" = type { i32 }
%"class.std::__cxx11::basic_string" = type { %"struct.std::__cxx11::basic_string<char>::_Alloc_hider", i64, %union.anon }
%"struct.std::__cxx11::basic_string<char>::_Alloc_hider" = type { ptr }
%union.anon = type { i64, [8 x i8] }
%"class.pxrInternal_v0_24__pxrReserved__::TfCallContext" = type <{ ptr, ptr, i64, ptr, i8, [7 x i8] }>
%"struct.pxrInternal_v0_24__pxrReserved__::Tf_DiagnosticLiteHelper" = type { %"class.pxrInternal_v0_24__pxrReserved__::TfCallContext", i32, [4 x i8] }

@.str.1 = private unnamed_addr constant [139 x i8] c"generated/home/dtcxzyw/WorkSpace/Projects/compilers/llvm-opt-benchmark/bench/openusd/OpenUSD/pxr/base/tf/testenv/registryManagerUnload.cpp\00", align 1
@__func__._ZL28Test_TfRegistryManagerUnloadv = private unnamed_addr constant [29 x i8] c"Test_TfRegistryManagerUnload\00", align 1
@__PRETTY_FUNCTION__._ZL28Test_TfRegistryManagerUnloadv = private unnamed_addr constant [36 x i8] c"bool Test_TfRegistryManagerUnload()\00", align 1
@.str.2 = private unnamed_addr constant [88 x i8] c"ArchGetAddressInfo((void*)Test_TfRegistryManagerUnload, &libraryPath, NULL, NULL, NULL)\00", align 1
@.str.3 = private unnamed_addr constant [39 x i8] c"lib/libTestTfRegistryFunctionPlugin.so\00", align 1
@.str.4 = private unnamed_addr constant [30 x i8] c"Checking test shared lib: %s\0A\00", align 1
@.str.5 = private unnamed_addr constant [43 x i8] c"!ArchFileAccess(libraryPath.c_str(), R_OK)\00", align 1
@_ZN32pxrInternal_v0_24__pxrReserved__7TfDebug5_DataINS_30TF_DISCOVERY_TERSE__DebugCodesEE5nodesE = linkonce_odr dso_local global [10 x %"struct.pxrInternal_v0_24__pxrReserved__::TfDebug::_Node"] zeroinitializer, comdat, align 16
@.str.16 = private unnamed_addr constant [21 x i8] c"Failed axiom: ' %s '\00", align 1
@_ZTI29Tf_TestRegistryFunctionPlugin = linkonce_odr dso_local constant { ptr, ptr } { ptr getelementptr inbounds (ptr, ptr @_ZTVN10__cxxabiv117__class_type_infoE, i64 2), ptr @_ZTS29Tf_TestRegistryFunctionPlugin }, comdat, align 8

; Function Attrs: mustprogress nounwind uwtable
define linkonce_odr dso_local void @_ZN32pxrInternal_v0_24__pxrReserved__23Tf_DiagnosticLiteHelperC2ERKNS_13TfCallContextENS_16TfDiagnosticTypeE(ptr noundef nonnull align 8 dereferenceable(44) %0, ptr noundef nonnull align 8 dereferenceable(33) %1, i32 noundef %2) unnamed_addr #4 comdat align 2 {
  %4 = alloca ptr, align 8
  %5 = alloca ptr, align 8
  %6 = alloca i32, align 4
  store ptr %0, ptr %4, align 8
  store ptr %1, ptr %5, align 8
  store i32 %2, ptr %6, align 4
  %7 = load ptr, ptr %4, align 8
  %8 = getelementptr inbounds nuw %"struct.pxrInternal_v0_24__pxrReserved__::Tf_DiagnosticLiteHelper", ptr %7, i32 0, i32 0
  %9 = load ptr, ptr %5, align 8
  call void @llvm.memcpy.p0.p0.i64(ptr align 8 %8, ptr align 8 %9, i64 40, i1 false)
  %10 = getelementptr inbounds nuw %"struct.pxrInternal_v0_24__pxrReserved__::Tf_DiagnosticLiteHelper", ptr %7, i32 0, i32 1
  %11 = load i32, ptr %6, align 4
  store i32 %11, ptr %10, align 8
  ret void
}

; Function Attrs: mustprogress nounwind uwtable
define linkonce_odr dso_local noundef ptr @_ZN32pxrInternal_v0_24__pxrReserved__19Tf_DebugGetEnumNameENS_30TF_DISCOVERY_TERSE__DebugCodesE(i32 noundef %0) #4 comdat {
  %2 = alloca i32, align 4
  %3 = alloca [10 x ptr], align 16
  store i32 %0, ptr %2, align 4
  call void @llvm.memcpy.p0.p0.i64(ptr align 16 %3, ptr align 16 @__const._ZN32pxrInternal_v0_24__pxrReserved__19Tf_DebugGetEnumNameENS_30TF_DISCOVERY_TERSE__DebugCodesE.CStrings, i64 80, i1 false)
  %4 = load i32, ptr %2, align 4
  %5 = sext i32 %4 to i64
  %6 = getelementptr inbounds [10 x ptr], ptr %3, i64 0, i64 %5
  %7 = load ptr, ptr %6, align 8
  ret ptr %7
}

; Function Attrs: mustprogress nounwind uwtable
define linkonce_odr dso_local noundef nonnull align 4 dereferenceable(4) ptr @_ZN32pxrInternal_v0_24__pxrReserved__7TfDebug8_GetNodeINS_30TF_DISCOVERY_TERSE__DebugCodesEEERNS0_5_NodeET_(i32 noundef %0) #4 comdat align 2 {
  %2 = alloca i32, align 4
  store i32 %0, ptr %2, align 4
  %3 = load i32, ptr %2, align 4
  %4 = sext i32 %3 to i64
  %5 = getelementptr inbounds [10 x %"struct.pxrInternal_v0_24__pxrReserved__::TfDebug::_Node"], ptr @_ZN32pxrInternal_v0_24__pxrReserved__7TfDebug5_DataINS_30TF_DISCOVERY_TERSE__DebugCodesEE5nodesE, i64 0, i64 %4
  ret ptr %5
}

; Function Attrs: mustprogress uwtable
define linkonce_odr dso_local void @_ZN32pxrInternal_v0_24__pxrReserved__17TfRegistryManager11SubscribeToI29Tf_TestRegistryFunctionPluginEEvv(ptr noundef nonnull align 1 dereferenceable(1) %0) #2 comdat align 2 {
  %2 = alloca ptr, align 8
  store ptr %0, ptr %2, align 8
  %3 = load ptr, ptr %2, align 8
  call void @_ZN32pxrInternal_v0_24__pxrReserved__17TfRegistryManager12_SubscribeToERKSt9type_info(ptr noundef nonnull align 1 dereferenceable(1) %3, ptr noundef nonnull align 8 dereferenceable(16) @_ZTI29Tf_TestRegistryFunctionPlugin)
  ret void
}

; Function Attrs: mustprogress uwtable
define linkonce_odr dso_local void @_ZStplIcSt11char_traitsIcESaIcEENSt7__cxx1112basic_stringIT_T0_T1_EEOS8_PKS5_(ptr dead_on_unwind noalias writable sret(%"class.std::__cxx11::basic_string") align 8 %0, ptr noundef nonnull align 8 dereferenceable(32) %1, ptr noundef %2) #2 comdat {
  %4 = alloca ptr, align 8
  %5 = alloca ptr, align 8
  %6 = alloca ptr, align 8
  store ptr %0, ptr %4, align 8
  store ptr %1, ptr %5, align 8
  store ptr %2, ptr %6, align 8
  %7 = load ptr, ptr %5, align 8
  %8 = load ptr, ptr %6, align 8
  %9 = call noundef nonnull align 8 dereferenceable(32) ptr @_ZNSt7__cxx1112basic_stringIcSt11char_traitsIcESaIcEE6appendEPKc(ptr noundef nonnull align 8 dereferenceable(32) %7, ptr noundef %8)
  call void @_ZNSt7__cxx1112basic_stringIcSt11char_traitsIcESaIcEEC1EOS4_(ptr noundef nonnull align 8 dereferenceable(32) %0, ptr noundef nonnull align 8 dereferenceable(32) %9) #8
  ret void
}

; Function Attrs: mustprogress uwtable
define linkonce_odr dso_local noundef zeroext i1 @_ZN32pxrInternal_v0_24__pxrReserved__14Tf_AxiomHelperEbRKNS_13TfCallContextEPKc(i1 noundef zeroext %0, ptr noundef nonnull align 8 dereferenceable(33) %1, ptr noundef %2) #2 comdat {
  %4 = alloca i8, align 1
  %5 = alloca ptr, align 8
  %6 = alloca ptr, align 8
  %7 = alloca %"struct.pxrInternal_v0_24__pxrReserved__::Tf_DiagnosticLiteHelper", align 8
  %8 = zext i1 %0 to i8
  store i8 %8, ptr %4, align 1
  store ptr %1, ptr %5, align 8
  store ptr %2, ptr %6, align 8
  %9 = load i8, ptr %4, align 1
  %10 = trunc i8 %9 to i1
  br i1 %10, label %11, label %12

11:                                               ; preds = %3
  br label %16

12:                                               ; preds = %3
  %13 = load ptr, ptr %5, align 8
  call void @_ZN32pxrInternal_v0_24__pxrReserved__23Tf_DiagnosticLiteHelperC2ERKNS_13TfCallContextENS_16TfDiagnosticTypeE(ptr noundef nonnull align 8 dereferenceable(44) %7, ptr noundef nonnull align 8 dereferenceable(33) %13, i32 noundef 4)
  %14 = load ptr, ptr %6, align 8
  call void (ptr, ptr, ...) @_ZNK32pxrInternal_v0_24__pxrReserved__23Tf_DiagnosticLiteHelper15IssueFatalErrorEPKcz(ptr noundef nonnull align 8 dereferenceable(44) %7, ptr noundef @.str.16, ptr noundef %14) #9
  unreachable

15:                                               ; No predecessors!
  br label %16

16:                                               ; preds = %15, %11
  %17 = phi i1 [ true, %11 ], [ false, %15 ]
  ret i1 %17
}

; Function Attrs: mustprogress nounwind uwtable
define linkonce_odr dso_local void @_ZN32pxrInternal_v0_24__pxrReserved__13TfCallContextC2EPKcS2_mS2_(ptr noundef nonnull align 8 dereferenceable(33) %0, ptr noundef %1, ptr noundef %2, i64 noundef %3, ptr noundef %4) unnamed_addr #4 comdat align 2 {
  %6 = alloca ptr, align 8
  %7 = alloca ptr, align 8
  %8 = alloca ptr, align 8
  %9 = alloca i64, align 8
  %10 = alloca ptr, align 8
  store ptr %0, ptr %6, align 8
  store ptr %1, ptr %7, align 8
  store ptr %2, ptr %8, align 8
  store i64 %3, ptr %9, align 8
  store ptr %4, ptr %10, align 8
  %11 = load ptr, ptr %6, align 8
  %12 = getelementptr inbounds nuw %"class.pxrInternal_v0_24__pxrReserved__::TfCallContext", ptr %11, i32 0, i32 0
  %13 = load ptr, ptr %7, align 8
  store ptr %13, ptr %12, align 8
  %14 = getelementptr inbounds nuw %"class.pxrInternal_v0_24__pxrReserved__::TfCallContext", ptr %11, i32 0, i32 1
  %15 = load ptr, ptr %8, align 8
  store ptr %15, ptr %14, align 8
  %16 = getelementptr inbounds nuw %"class.pxrInternal_v0_24__pxrReserved__::TfCallContext", ptr %11, i32 0, i32 2
  %17 = load i64, ptr %9, align 8
  store i64 %17, ptr %16, align 8
  %18 = getelementptr inbounds nuw %"class.pxrInternal_v0_24__pxrReserved__::TfCallContext", ptr %11, i32 0, i32 3
  %19 = load ptr, ptr %10, align 8
  store ptr %19, ptr %18, align 8
  %20 = getelementptr inbounds nuw %"class.pxrInternal_v0_24__pxrReserved__::TfCallContext", ptr %11, i32 0, i32 4
  store i8 0, ptr %20, align 8
  ret void
}

; Function Attrs: mustprogress uwtable
define linkonce_odr dso_local void @_ZN32pxrInternal_v0_24__pxrReserved__7TfDebug6EnableINS_30TF_DISCOVERY_TERSE__DebugCodesEEEvT_(i32 noundef %0) #2 comdat align 2 {
  %2 = alloca i32, align 4
  store i32 %0, ptr %2, align 4
  %3 = load i32, ptr %2, align 4
  %4 = call noundef nonnull align 4 dereferenceable(4) ptr @_ZN32pxrInternal_v0_24__pxrReserved__7TfDebug8_GetNodeINS_30TF_DISCOVERY_TERSE__DebugCodesEEERNS0_5_NodeET_(i32 noundef %3)
  %5 = load i32, ptr %2, align 4
  %6 = call noundef ptr @_ZN32pxrInternal_v0_24__pxrReserved__19Tf_DebugGetEnumNameENS_30TF_DISCOVERY_TERSE__DebugCodesE(i32 noundef %5)
  call void @_ZN32pxrInternal_v0_24__pxrReserved__7TfDebug8_SetNodeERNS0_5_NodeEPKcb(ptr noundef nonnull align 4 dereferenceable(4) %4, ptr noundef %6, i1 noundef zeroext true)
  ret void
}

; Function Attrs: mustprogress uwtable
define internal noundef zeroext i1 @_ZL28Test_TfRegistryManagerUnloadv() #2 personality ptr @__gxx_personality_v0 {
  %1 = alloca %"class.std::__cxx11::basic_string", align 8
  %2 = alloca ptr, align 8
  %3 = alloca i32, align 4
  %4 = alloca %"class.pxrInternal_v0_24__pxrReserved__::TfCallContext", align 8
  %5 = alloca %"class.std::__cxx11::basic_string", align 8
  %6 = alloca %"class.std::__cxx11::basic_string", align 8
  %7 = alloca %"class.pxrInternal_v0_24__pxrReserved__::TfCallContext", align 8
  call void @_ZN32pxrInternal_v0_24__pxrReserved__7TfDebug6EnableINS_30TF_DISCOVERY_TERSE__DebugCodesEEEvT_(i32 noundef 3)
  call void @_ZN32pxrInternal_v0_24__pxrReserved__7TfDebug6EnableINS_30TF_DISCOVERY_TERSE__DebugCodesEEEvT_(i32 noundef 4)
  call void @_ZNSt7__cxx1112basic_stringIcSt11char_traitsIcESaIcEEC1Ev(ptr noundef nonnull align 8 dereferenceable(32) %1) #8
  %8 = invoke noundef zeroext i1 @_ZN32pxrInternal_v0_24__pxrReserved__18ArchGetAddressInfoEPvPNSt7__cxx1112basic_stringIcSt11char_traitsIcESaIcEEEPS0_S7_S8_(ptr noundef @_ZL28Test_TfRegistryManagerUnloadv, ptr noundef %1, ptr noundef null, ptr noundef null, ptr noundef null)
          to label %9 unwind label %31

9:                                                ; preds = %0
  invoke void @_ZN32pxrInternal_v0_24__pxrReserved__13TfCallContextC2EPKcS2_mS2_(ptr noundef nonnull align 8 dereferenceable(33) %4, ptr noundef @.str.1, ptr noundef @__func__._ZL28Test_TfRegistryManagerUnloadv, i64 noundef 43, ptr noundef @__PRETTY_FUNCTION__._ZL28Test_TfRegistryManagerUnloadv)
          to label %10 unwind label %31

10:                                               ; preds = %9
  %11 = invoke noundef zeroext i1 @_ZN32pxrInternal_v0_24__pxrReserved__14Tf_AxiomHelperEbRKNS_13TfCallContextEPKc(i1 noundef zeroext %8, ptr noundef nonnull align 8 dereferenceable(33) %4, ptr noundef @.str.2)
          to label %12 unwind label %31

12:                                               ; preds = %10
  invoke void @_ZN32pxrInternal_v0_24__pxrReserved__13TfGetPathNameERKNSt7__cxx1112basic_stringIcSt11char_traitsIcESaIcEEE(ptr dead_on_unwind writable sret(%"class.std::__cxx11::basic_string") align 8 %6, ptr noundef nonnull align 8 dereferenceable(32) %1)
          to label %13 unwind label %31

13:                                               ; preds = %12
  invoke void @_ZStplIcSt11char_traitsIcESaIcEENSt7__cxx1112basic_stringIT_T0_T1_EEOS8_PKS5_(ptr dead_on_unwind writable sret(%"class.std::__cxx11::basic_string") align 8 %5, ptr noundef nonnull align 8 dereferenceable(32) %6, ptr noundef @.str.3)
          to label %14 unwind label %35

14:                                               ; preds = %13
  %15 = call noundef nonnull align 8 dereferenceable(32) ptr @_ZNSt7__cxx1112basic_stringIcSt11char_traitsIcESaIcEEaSEOS4_(ptr noundef nonnull align 8 dereferenceable(32) %1, ptr noundef nonnull align 8 dereferenceable(32) %5) #8
  call void @_ZNSt7__cxx1112basic_stringIcSt11char_traitsIcESaIcEED1Ev(ptr noundef nonnull align 8 dereferenceable(32) %5) #8
  call void @_ZNSt7__cxx1112basic_stringIcSt11char_traitsIcESaIcEED1Ev(ptr noundef nonnull align 8 dereferenceable(32) %6) #8
  %16 = call noundef ptr @_ZNKSt7__cxx1112basic_stringIcSt11char_traitsIcESaIcEE5c_strEv(ptr noundef nonnull align 8 dereferenceable(32) %1) #8
  %17 = invoke i32 (ptr, ...) @printf(ptr noundef @.str.4, ptr noundef %16)
          to label %18 unwind label %31

18:                                               ; preds = %14
  %19 = call noundef ptr @_ZNKSt7__cxx1112basic_stringIcSt11char_traitsIcESaIcEE5c_strEv(ptr noundef nonnull align 8 dereferenceable(32) %1) #8
  %20 = call i32 @access(ptr noundef %19, i32 noundef 4) #8
  %21 = icmp ne i32 %20, 0
  %22 = xor i1 %21, true
  invoke void @_ZN32pxrInternal_v0_24__pxrReserved__13TfCallContextC2EPKcS2_mS2_(ptr noundef nonnull align 8 dereferenceable(33) %7, ptr noundef @.str.1, ptr noundef @__func__._ZL28Test_TfRegistryManagerUnloadv, i64 noundef 53, ptr noundef @__PRETTY_FUNCTION__._ZL28Test_TfRegistryManagerUnloadv)
          to label %23 unwind label %31

23:                                               ; preds = %18
  %24 = invoke noundef zeroext i1 @_ZN32pxrInternal_v0_24__pxrReserved__14Tf_AxiomHelperEbRKNS_13TfCallContextEPKc(i1 noundef zeroext %22, ptr noundef nonnull align 8 dereferenceable(33) %7, ptr noundef @.str.5)
          to label %25 unwind label %31

25:                                               ; preds = %23
  invoke void @_ZL27_LoadAndUnloadSharedLibraryRKNSt7__cxx1112basic_stringIcSt11char_traitsIcESaIcEEE(ptr noundef nonnull align 8 dereferenceable(32) %1)
          to label %26 unwind label %31

26:                                               ; preds = %25
  %27 = invoke noundef nonnull align 1 dereferenceable(1) ptr @_ZN32pxrInternal_v0_24__pxrReserved__17TfRegistryManager11GetInstanceEv()
          to label %28 unwind label %31

28:                                               ; preds = %26
  invoke void @_ZN32pxrInternal_v0_24__pxrReserved__17TfRegistryManager11SubscribeToI29Tf_TestRegistryFunctionPluginEEvv(ptr noundef nonnull align 1 dereferenceable(1) %27)
          to label %29 unwind label %31

29:                                               ; preds = %28
  invoke void @_ZL27_LoadAndUnloadSharedLibraryRKNSt7__cxx1112basic_stringIcSt11char_traitsIcESaIcEEE(ptr noundef nonnull align 8 dereferenceable(32) %1)
          to label %30 unwind label %31

30:                                               ; preds = %29
  call void @_ZNSt7__cxx1112basic_stringIcSt11char_traitsIcESaIcEED1Ev(ptr noundef nonnull align 8 dereferenceable(32) %1) #8
  ret i1 true

31:                                               ; preds = %29, %28, %26, %25, %23, %18, %14, %12, %10, %9, %0
  %32 = landingpad { ptr, i32 }
          cleanup
  %33 = extractvalue { ptr, i32 } %32, 0
  store ptr %33, ptr %2, align 8
  %34 = extractvalue { ptr, i32 } %32, 1
  store i32 %34, ptr %3, align 4
  br label %39

35:                                               ; preds = %13
  %36 = landingpad { ptr, i32 }
          cleanup
  %37 = extractvalue { ptr, i32 } %36, 0
  store ptr %37, ptr %2, align 8
  %38 = extractvalue { ptr, i32 } %36, 1
  store i32 %38, ptr %3, align 4
  call void @_ZNSt7__cxx1112basic_stringIcSt11char_traitsIcESaIcEED1Ev(ptr noundef nonnull align 8 dereferenceable(32) %6) #8
  br label %39

39:                                               ; preds = %35, %31
  call void @_ZNSt7__cxx1112basic_stringIcSt11char_traitsIcESaIcEED1Ev(ptr noundef nonnull align 8 dereferenceable(32) %1) #8
  br label %40

40:                                               ; preds = %39
  %41 = load ptr, ptr %2, align 8
  %42 = load i32, ptr %3, align 4
  %43 = insertvalue { ptr, i32 } poison, ptr %41, 0
  %44 = insertvalue { ptr, i32 } %43, i32 %42, 1
  resume { ptr, i32 } %44
}