; Function Attrs: mustprogress uwtable
define internal noundef zeroext i1 @_ZL28Test_TfRegistryManagerUnloadv() #1 personality ptr @__gxx_personality_v0 {
  %1 = alloca %"struct.pxrInternal_v0_24__pxrReserved__::Tf_DiagnosticLiteHelper", align 8
  %2 = alloca %"struct.pxrInternal_v0_24__pxrReserved__::Tf_DiagnosticLiteHelper", align 8
  %3 = alloca %"class.std::__cxx11::basic_string", align 8
  %4 = alloca %"class.std::__cxx11::basic_string", align 8
  %5 = alloca %"class.std::__cxx11::basic_string", align 8
  tail call void @_ZN32pxrInternal_v0_24__pxrReserved__7TfDebug8_SetNodeERNS0_5_NodeEPKcb(ptr noundef nonnull align 4 dereferenceable(4) getelementptr inbounds nuw (i8, ptr @_ZN32pxrInternal_v0_24__pxrReserved__7TfDebug5_DataINS_30TF_DISCOVERY_TERSE__DebugCodesEE5nodesE, i64 12), ptr noundef nonnull @.str.9, i1 noundef zeroext true)
  tail call void @_ZN32pxrInternal_v0_24__pxrReserved__7TfDebug8_SetNodeERNS0_5_NodeEPKcb(ptr noundef nonnull align 4 dereferenceable(4) getelementptr inbounds nuw (i8, ptr @_ZN32pxrInternal_v0_24__pxrReserved__7TfDebug5_DataINS_30TF_DISCOVERY_TERSE__DebugCodesEE5nodesE, i64 16), ptr noundef nonnull @.str.10, i1 noundef zeroext true)
  call void @_ZNSt7__cxx1112basic_stringIcSt11char_traitsIcESaIcEEC1Ev(ptr noundef nonnull align 8 dereferenceable(32) %3) #11
  %.sink18.sroa.gep19 = getelementptr inbounds nuw i8, ptr %1, i64 8
  %.sink18.sroa.gep22 = getelementptr inbounds nuw i8, ptr %1, i64 16
  %.sink18.sroa.gep25 = getelementptr inbounds nuw i8, ptr %1, i64 24
  %.sink18.sroa.gep28 = getelementptr inbounds nuw i8, ptr %1, i64 32
  %.sink18.sroa.gep31 = getelementptr inbounds nuw i8, ptr %1, i64 40
  %6 = invoke noundef zeroext i1 @_ZN32pxrInternal_v0_24__pxrReserved__18ArchGetAddressInfoEPvPNSt7__cxx1112basic_stringIcSt11char_traitsIcESaIcEEEPS0_S7_S8_(ptr noundef nonnull @_ZL28Test_TfRegistryManagerUnloadv, ptr noundef nonnull %3, ptr noundef null, ptr noundef null, ptr noundef null)
          to label %7 unwind label %23

7:                                                ; preds = %0
  %.sink18.sroa.gep30 = getelementptr inbounds nuw i8, ptr %2, i64 40
  %.sink18.sroa.gep27 = getelementptr inbounds nuw i8, ptr %2, i64 32
  %.sink18.sroa.gep24 = getelementptr inbounds nuw i8, ptr %2, i64 24
  %.sink18.sroa.gep21 = getelementptr inbounds nuw i8, ptr %2, i64 16
  %.sink18.sroa.gep = getelementptr inbounds nuw i8, ptr %2, i64 8
  call void @llvm.lifetime.start.p0(i64 48, ptr nonnull %2)
  br i1 %6, label %8, label %.invoke

8:                                                ; preds = %7
  call void @llvm.lifetime.end.p0(i64 48, ptr nonnull %2)
  invoke void @_ZN32pxrInternal_v0_24__pxrReserved__13TfGetPathNameERKNSt7__cxx1112basic_stringIcSt11char_traitsIcESaIcEEE(ptr dead_on_unwind nonnull writable sret(%"class.std::__cxx11::basic_string") align 8 %5, ptr noundef nonnull align 8 dereferenceable(32) %3)
          to label %9 unwind label %23

9:                                                ; preds = %8
  %10 = invoke noundef nonnull align 8 dereferenceable(32) ptr @_ZNSt7__cxx1112basic_stringIcSt11char_traitsIcESaIcEE6appendEPKc(ptr noundef nonnull align 8 dereferenceable(32) %5, ptr noundef nonnull @.str.3)
          to label %11 unwind label %25

11:                                               ; preds = %9
  call void @_ZNSt7__cxx1112basic_stringIcSt11char_traitsIcESaIcEEC1EOS4_(ptr noundef nonnull align 8 dereferenceable(32) %4, ptr noundef nonnull align 8 dereferenceable(32) %10) #11
  %12 = call noundef nonnull align 8 dereferenceable(32) ptr @_ZNSt7__cxx1112basic_stringIcSt11char_traitsIcESaIcEEaSEOS4_(ptr noundef nonnull align 8 dereferenceable(32) %3, ptr noundef nonnull align 8 dereferenceable(32) %4) #11
  call void @_ZNSt7__cxx1112basic_stringIcSt11char_traitsIcESaIcEED1Ev(ptr noundef nonnull align 8 dereferenceable(32) %4) #11
  call void @_ZNSt7__cxx1112basic_stringIcSt11char_traitsIcESaIcEED1Ev(ptr noundef nonnull align 8 dereferenceable(32) %5) #11
  %13 = call noundef ptr @_ZNKSt7__cxx1112basic_stringIcSt11char_traitsIcESaIcEE5c_strEv(ptr noundef nonnull align 8 dereferenceable(32) %3) #11
  %14 = call i32 (ptr, ...) @printf(ptr noundef nonnull dereferenceable(1) @.str.4, ptr noundef %13)
  %15 = call noundef ptr @_ZNKSt7__cxx1112basic_stringIcSt11char_traitsIcESaIcEE5c_strEv(ptr noundef nonnull align 8 dereferenceable(32) %3) #11
  %16 = call i32 @access(ptr noundef %15, i32 noundef 4) #11
  %.not = icmp eq i32 %16, 0
  call void @llvm.lifetime.start.p0(i64 48, ptr nonnull %1)
  br i1 %.not, label %18, label %.invoke

.invoke:                                          ; preds = %11, %7
  %.sink18.sroa.phi = phi ptr [ %.sink18.sroa.gep, %7 ], [ %.sink18.sroa.gep19, %11 ]
  %.sink18.sroa.phi20 = phi ptr [ %.sink18.sroa.gep21, %7 ], [ %.sink18.sroa.gep22, %11 ]
  %.sink18.sroa.phi23 = phi ptr [ %.sink18.sroa.gep24, %7 ], [ %.sink18.sroa.gep25, %11 ]
  %.sink18.sroa.phi26 = phi ptr [ %.sink18.sroa.gep27, %7 ], [ %.sink18.sroa.gep28, %11 ]
  %.sink18.sroa.phi29 = phi ptr [ %.sink18.sroa.gep30, %7 ], [ %.sink18.sroa.gep31, %11 ]
  %.sink18 = phi ptr [ %2, %7 ], [ %1, %11 ]
  %.sink15 = phi i64 [ 43, %7 ], [ 53, %11 ]
  %17 = phi ptr [ @.str.2, %7 ], [ @.str.5, %11 ]
  store ptr @.str.1, ptr %.sink18, align 8
  store ptr @__func__._ZL28Test_TfRegistryManagerUnloadv, ptr %.sink18.sroa.phi, align 8
  store i64 %.sink15, ptr %.sink18.sroa.phi20, align 8
  store ptr @__PRETTY_FUNCTION__._ZL28Test_TfRegistryManagerUnloadv, ptr %.sink18.sroa.phi23, align 8
  store i8 0, ptr %.sink18.sroa.phi26, align 8
  store i32 4, ptr %.sink18.sroa.phi29, align 8
  invoke void (ptr, ptr, ...) @_ZNK32pxrInternal_v0_24__pxrReserved__23Tf_DiagnosticLiteHelper15IssueFatalErrorEPKcz(ptr noundef nonnull align 8 dereferenceable(44) %.sink18, ptr noundef nonnull @.str.16, ptr noundef nonnull %17) #12
          to label %.cont unwind label %23

.cont:                                            ; preds = %.invoke
  unreachable

18:                                               ; preds = %11
  call void @llvm.lifetime.end.p0(i64 48, ptr nonnull %1)
  invoke fastcc void @_ZL27_LoadAndUnloadSharedLibraryRKNSt7__cxx1112basic_stringIcSt11char_traitsIcESaIcEEE(ptr noundef nonnull align 8 dereferenceable(32) %3)
          to label %19 unwind label %23

19:                                               ; preds = %18
  %20 = invoke noundef nonnull align 1 dereferenceable(1) ptr @_ZN32pxrInternal_v0_24__pxrReserved__17TfRegistryManager11GetInstanceEv()
          to label %21 unwind label %23

21:                                               ; preds = %19
  invoke void @_ZN32pxrInternal_v0_24__pxrReserved__17TfRegistryManager12_SubscribeToERKSt9type_info(ptr noundef nonnull align 1 dereferenceable(1) %20, ptr noundef nonnull align 8 dereferenceable(16) @_ZTI29Tf_TestRegistryFunctionPlugin)
          to label %_ZN32pxrInternal_v0_24__pxrReserved__17TfRegistryManager11SubscribeToI29Tf_TestRegistryFunctionPluginEEvv.exit unwind label %23

_ZN32pxrInternal_v0_24__pxrReserved__17TfRegistryManager11SubscribeToI29Tf_TestRegistryFunctionPluginEEvv.exit: ; preds = %21
  invoke fastcc void @_ZL27_LoadAndUnloadSharedLibraryRKNSt7__cxx1112basic_stringIcSt11char_traitsIcESaIcEEE(ptr noundef nonnull align 8 dereferenceable(32) %3)
          to label %22 unwind label %23

22:                                               ; preds = %_ZN32pxrInternal_v0_24__pxrReserved__17TfRegistryManager11SubscribeToI29Tf_TestRegistryFunctionPluginEEvv.exit
  call void @_ZNSt7__cxx1112basic_stringIcSt11char_traitsIcESaIcEED1Ev(ptr noundef nonnull align 8 dereferenceable(32) %3) #11
  ret i1 true

23:                                               ; preds = %.invoke, %21, %_ZN32pxrInternal_v0_24__pxrReserved__17TfRegistryManager11SubscribeToI29Tf_TestRegistryFunctionPluginEEvv.exit, %19, %18, %8, %0
  %24 = landingpad { ptr, i32 }
          cleanup
  br label %27

25:                                               ; preds = %9
  %26 = landingpad { ptr, i32 }
          cleanup
  call void @_ZNSt7__cxx1112basic_stringIcSt11char_traitsIcESaIcEED1Ev(ptr noundef nonnull align 8 dereferenceable(32) %5) #11
  br label %27

27:                                               ; preds = %25, %23
  %.pn = phi { ptr, i32 } [ %24, %23 ], [ %26, %25 ]
  call void @_ZNSt7__cxx1112basic_stringIcSt11char_traitsIcESaIcEED1Ev(ptr noundef nonnull align 8 dereferenceable(32) %3) #11
  resume { ptr, i32 } %.pn
}